target datalayout = "e-m:e-p270:32:32-p271:32:32-p272:64:64-i64:64-i128:128-f80:128-n8:16:32:64-S128"
target triple = "x86_64-pc-linux-gnu"

%struct.pmix_proc = type { [256 x i8], i32 }
%struct.prte_process_info_t = type { %struct.pmix_proc, %struct.pmix_proc, ptr, %struct.pmix_proc, i32, i32, i32, ptr, ptr, i32, i8, ptr, i16, ptr, ptr, i8, ptr, i8 }

@term_pipe = internal global [2 x i32] zeroinitializer, align 4
@stderr = external global ptr, align 8
@prte_process_info = external global %struct.prte_process_info_t, align 8
@.str.136 = private unnamed_addr constant [64 x i8] c"Abort is in progress...hit ctrl-c again to forcibly terminate\0A\0A\00", align 1
@first = internal global i8 1, align 1
@second = internal global i8 1, align 1

; Function Attrs: nounwind uwtable
define internal void @abort_signal_callback(i32 noundef %0) #0 {
  %2 = alloca i32, align 4
  %3 = alloca i8, align 1
  %4 = alloca ptr, align 8
  store i32 %0, ptr %2, align 4, !tbaa !4
  call void @llvm.lifetime.start.p0(i64 1, ptr %3) #12
  store i8 1, ptr %3, align 1, !tbaa !40
  call void @llvm.lifetime.start.p0(i64 8, ptr %4) #12
  store ptr @.str.136, ptr %4, align 8, !tbaa !22
  %5 = load i8, ptr @first, align 1, !tbaa !11, !range !38, !noundef !39
  %6 = trunc i8 %5 to i1
  br i1 %6, label %7, label %13

7:                                                ; preds = %1
  store i8 0, ptr @first, align 1, !tbaa !11
  %8 = load i32, ptr getelementptr inbounds ([2 x i32], ptr @term_pipe, i64 0, i64 1), align 4, !tbaa !4
  %9 = call i64 @write(i32 noundef %8, ptr noundef %3, i64 noundef 1)
  %10 = icmp eq i64 -1, %9
  br i1 %10, label %11, label %12

11:                                               ; preds = %7
  call void @exit(i32 noundef 1) #14
  unreachable

12:                                               ; preds = %7
  br label %30

13:                                               ; preds = %1
  %14 = load i8, ptr @second, align 1, !tbaa !11, !range !38, !noundef !39
  %15 = trunc i8 %14 to i1
  br i1 %15, label %16, label %26

16:                                               ; preds = %13
  %17 = load ptr, ptr %4, align 8, !tbaa !22
  %18 = load ptr, ptr %4, align 8, !tbaa !22
  %19 = call i64 @strlen(ptr noundef %18) #13
  %20 = call i64 @write(i32 noundef 2, ptr noundef %17, i64 noundef %19)
  %21 = icmp eq i64 -1, %20
  br i1 %21, label %22, label %23

22:                                               ; preds = %16
  call void @exit(i32 noundef 1) #14
  unreachable

23:                                               ; preds = %16
  %24 = load ptr, ptr @stderr, align 8, !tbaa !25
  %25 = call i32 @fflush(ptr noundef %24)
  store i8 0, ptr @second, align 1, !tbaa !11
  br label %29

26:                                               ; preds = %13
  call void @surekill()
  %27 = load ptr, ptr getelementptr inbounds nuw (%struct.prte_process_info_t, ptr @prte_process_info, i32 0, i32 14), align 8, !tbaa !162
  %28 = call i32 @pmix_os_dirpath_destroy(ptr noundef %27, i1 noundef zeroext true, ptr noundef null)
  call void @exit(i32 noundef 1) #14
  unreachable

29:                                               ; preds = %23
  br label %30

30:                                               ; preds = %29, %12
  call void @llvm.lifetime.end.p0(i64 8, ptr %4) #12
  call void @llvm.lifetime.end.p0(i64 1, ptr %3) #12
  ret void
}