; Function Attrs: nounwind uwtable
define internal void @abort_signal_callback(i32 %0) #0 {
  %2 = alloca i8, align 1
  call void @llvm.lifetime.start.p0(i64 1, ptr nonnull %2) #23
  store i8 1, ptr %2, align 1, !tbaa !41
  %.b = load i1, ptr @first, align 1
  br i1 %.b, label %8, label %3

3:                                                ; preds = %1
  store i1 true, ptr @first, align 1
  %4 = load i32, ptr getelementptr inbounds nuw (i8, ptr @term_pipe, i64 4), align 4, !tbaa !9
  %5 = call i64 @write(i32 noundef %4, ptr noundef nonnull %2, i64 noundef 1) #23
  %6 = icmp eq i64 %5, -1
  br i1 %6, label %7, label %19

7:                                                ; preds = %3
  tail call void @exit(i32 noundef 1) #25
  unreachable

8:                                                ; preds = %1
  %.b2 = load i1, ptr @second, align 1
  br i1 %.b2, label %16, label %9

9:                                                ; preds = %8
  %10 = tail call i64 @write(i32 noundef 2, ptr noundef nonnull @.str.136, i64 noundef 63) #23
  %11 = icmp eq i64 %10, -1
  br i1 %11, label %12, label %13

12:                                               ; preds = %9
  tail call void @exit(i32 noundef 1) #25
  unreachable

13:                                               ; preds = %9
  %14 = load ptr, ptr @stderr, align 8, !tbaa !26
  %15 = tail call i32 @fflush(ptr noundef %14)
  store i1 true, ptr @second, align 1
  br label %19

16:                                               ; preds = %8
  tail call fastcc void @surekill()
  %17 = load ptr, ptr getelementptr inbounds nuw (i8, ptr @prte_process_info, i64 848), align 8, !tbaa !148
  %18 = tail call i32 @pmix_os_dirpath_destroy(ptr noundef %17, i1 noundef zeroext true, ptr noundef null) #23
  tail call void @exit(i32 noundef 1) #25
  unreachable

19:                                               ; preds = %3, %13
  call void @llvm.lifetime.end.p0(i64 1, ptr nonnull %2) #23
  ret void
}